target datalayout = "e-m:e-p270:32:32-p271:32:32-p272:64:64-i64:64-i128:128-f80:128-n8:16:32:64-S128"
target triple = "x86_64-pc-linux-gnu"

; Function Attrs: nounwind uwtable
define internal void @put_mspel8_mc12_c(ptr noundef %0, ptr noundef %1, i64 noundef %2) #1 {
  %4 = alloca ptr, align 8
  %5 = alloca ptr, align 8
  %6 = alloca i64, align 8
  %7 = alloca [88 x i8], align 16
  %8 = alloca [64 x i8], align 16
  %9 = alloca [64 x i8], align 16
  store ptr %0, ptr %4, align 8, !tbaa !15
  store ptr %1, ptr %5, align 8, !tbaa !15
  store i64 %2, ptr %6, align 8, !tbaa !17
  call void @llvm.lifetime.start.p0(i64 88, ptr %7) #5
  call void @llvm.lifetime.start.p0(i64 64, ptr %8) #5
  call void @llvm.lifetime.start.p0(i64 64, ptr %9) #5
  %10 = getelementptr inbounds [88 x i8], ptr %7, i64 0, i64 0
  %11 = load ptr, ptr %5, align 8, !tbaa !15
  %12 = load i64, ptr %6, align 8, !tbaa !17
  %13 = sub i64 0, %12
  %14 = getelementptr inbounds i8, ptr %11, i64 %13
  %15 = load i64, ptr %6, align 8, !tbaa !17
  %16 = trunc i64 %15 to i32
  call void @wmv2_mspel8_h_lowpass(ptr noundef %10, ptr noundef %14, i32 noundef 8, i32 noundef %16, i32 noundef 11)
  %17 = getelementptr inbounds [64 x i8], ptr %8, i64 0, i64 0
  %18 = load ptr, ptr %5, align 8, !tbaa !15
  %19 = load i64, ptr %6, align 8, !tbaa !17
  %20 = trunc i64 %19 to i32
  call void @wmv2_mspel8_v_lowpass(ptr noundef %17, ptr noundef %18, i32 noundef 8, i32 noundef %20, i32 noundef 8)
  %21 = getelementptr inbounds [64 x i8], ptr %9, i64 0, i64 0
  %22 = getelementptr inbounds [88 x i8], ptr %7, i64 0, i64 0
  %23 = getelementptr inbounds i8, ptr %22, i64 8
  call void @wmv2_mspel8_v_lowpass(ptr noundef %21, ptr noundef %23, i32 noundef 8, i32 noundef 8, i32 noundef 8)
  %24 = load ptr, ptr %4, align 8, !tbaa !15
  %25 = getelementptr inbounds [64 x i8], ptr %8, i64 0, i64 0
  %26 = getelementptr inbounds [64 x i8], ptr %9, i64 0, i64 0
  %27 = load i64, ptr %6, align 8, !tbaa !17
  %28 = trunc i64 %27 to i32
  call void @ff_put_pixels8_l2_8(ptr noundef %24, ptr noundef %25, ptr noundef %26, i32 noundef %28, i32 noundef 8, i32 noundef 8, i32 noundef 8)
  call void @llvm.lifetime.end.p0(i64 64, ptr %9) #5
  call void @llvm.lifetime.end.p0(i64 64, ptr %8) #5
  call void @llvm.lifetime.end.p0(i64 88, ptr %7) #5
  ret void
}